target datalayout = "e-m:e-p270:32:32-p271:32:32-p272:64:64-i64:64-i128:128-f80:128-n8:16:32:64-S128"
target triple = "x86_64-pc-linux-gnu"

%struct.H5O_t = type { %struct.H5C_cache_entry_t, i64, i64, i8, i64, i8, i32, i8, i8, i64, i64, i64, i64, i32, i32, i64, i64, ptr, i64, i64, i64, i64, ptr, i8, ptr }
%struct.H5C_cache_entry_t = type { ptr, i64, i64, ptr, i8, ptr, i8, i8, i8, i8, i32, i8, i8, i8, i8, i8, i32, ptr, i32, i32, i32, i32, i32, i8, i8, ptr, ptr, ptr, ptr, ptr, ptr, i8, i32, i8, i64, ptr, i64, i64, i32, i8, i32, i32, i8, ptr, ptr, ptr }

@H5O_init_g = external global i8, align 1
@H5_libterm_g = external global i8, align 1
@.str = private unnamed_addr constant [104 x i8] c"generated/home/dtcxzyw/WorkSpace/Projects/compilers/llvm-opt-benchmark/bench/hdf5/hdf5/src/H5Omessage.c\00", align 1
@H5E_FUNC_g = external global i64, align 8
@H5E_CANTINIT_g = external global i64, align 8
@.str.1 = private unnamed_addr constant [32 x i8] c"interface initialization failed\00", align 1
@H5E_OHDR_g = external global i64, align 8
@H5E_WRITEERROR_g = external global i64, align 8
@H5O_msg_class_g = external constant [26 x ptr], align 16
@.str.8 = private unnamed_addr constant [38 x i8] c"unable to write object header message\00", align 1
@__func__.H5O_msg_write_oh = private unnamed_addr constant [17 x i8] c"H5O_msg_write_oh\00", align 1

; Function Attrs: nounwind uwtable
define i32 @H5O_msg_write_oh(ptr noundef %0, ptr noundef %1, i32 noundef %2, i32 noundef %3, i32 noundef %4, ptr noundef %5) #0 {
  %7 = alloca ptr, align 8
  %8 = alloca ptr, align 8
  %9 = alloca i32, align 4
  %10 = alloca i32, align 4
  %11 = alloca i32, align 4
  %12 = alloca ptr, align 8
  %13 = alloca ptr, align 8
  %14 = alloca i32, align 4
  %15 = alloca i64, align 8
  %16 = alloca i8, align 1
  store ptr %0, ptr %7, align 8, !tbaa !22
  store ptr %1, ptr %8, align 8, !tbaa !11
  store i32 %2, ptr %9, align 4, !tbaa !8
  store i32 %3, ptr %10, align 4, !tbaa !8
  store i32 %4, ptr %11, align 4, !tbaa !8
  store ptr %5, ptr %12, align 8, !tbaa !10
  call void @llvm.lifetime.start.p0(i64 8, ptr %13) #5
  call void @llvm.lifetime.start.p0(i64 4, ptr %14) #5
  store i32 0, ptr %14, align 4, !tbaa !8
  call void @llvm.lifetime.start.p0(i64 8, ptr %15) #5
  store i64 -1, ptr %15, align 8, !tbaa !17
  call void @llvm.lifetime.start.p0(i64 1, ptr %16) #5
  store i8 0, ptr %16, align 1, !tbaa !13
  %17 = load ptr, ptr %8, align 8, !tbaa !11
  %18 = getelementptr inbounds nuw %struct.H5O_t, ptr %17, i32 0, i32 0
  %19 = getelementptr inbounds nuw %struct.H5C_cache_entry_t, ptr %18, i32 0, i32 1
  %20 = load i64, ptr %19, align 8, !tbaa !58
  call void @H5AC_tag(i64 noundef %20, ptr noundef %15)
  %21 = load i8, ptr @H5O_init_g, align 1, !tbaa !13, !range !15, !noundef !16
  %22 = trunc i8 %21 to i1
  br i1 %22, label %27, label %23

23:                                               ; preds = %6
  %24 = load i8, ptr @H5_libterm_g, align 1, !tbaa !13, !range !15, !noundef !16
  %25 = trunc i8 %24 to i1
  %26 = xor i1 %25, true
  br label %27

27:                                               ; preds = %23, %6
  %28 = phi i1 [ false, %6 ], [ %26, %23 ]
  %29 = xor i1 %28, true
  %30 = xor i1 %29, true
  %31 = zext i1 %30 to i32
  %32 = sext i32 %31 to i64
  %33 = call i64 @llvm.expect.i64(i64 %32, i64 0)
  %34 = icmp ne i64 %33, 0
  br i1 %34, label %35, label %58

35:                                               ; preds = %27
  store i8 1, ptr @H5O_init_g, align 1, !tbaa !13
  %36 = call i32 @H5O__init_package()
  %37 = icmp slt i32 %36, 0
  br i1 %37, label %38, label %57

38:                                               ; preds = %35
  store i8 0, ptr @H5O_init_g, align 1, !tbaa !13
  br label %39

39:                                               ; preds = %38
  br label %40

40:                                               ; preds = %39
  br label %41

41:                                               ; preds = %40
  %42 = load i64, ptr @H5E_FUNC_g, align 8, !tbaa !17
  %43 = load i64, ptr @H5E_CANTINIT_g, align 8, !tbaa !17
  %44 = call i32 (ptr, ptr, i32, i64, i64, ptr, ...) @H5E_printf_stack(ptr noundef @.str, ptr noundef @__func__.H5O_msg_write_oh, i32 noundef 278, i64 noundef %42, i64 noundef %43, ptr noundef @.str.1)
  br label %45

45:                                               ; preds = %41
  br label %46

46:                                               ; preds = %45
  store i8 1, ptr %16, align 1, !tbaa !13
  %47 = load i8, ptr %16, align 1, !tbaa !13, !range !15, !noundef !16
  %48 = trunc i8 %47 to i1
  %49 = zext i1 %48 to i8
  store i8 %49, ptr %16, align 1, !tbaa !13
  br label %50

50:                                               ; preds = %46
  br label %51

51:                                               ; preds = %50
  br label %52

52:                                               ; preds = %51
  store i32 -1, ptr %14, align 4, !tbaa !8
  br label %106

53:                                               ; No predecessors!
  br label %54

54:                                               ; preds = %53
  br label %55

55:                                               ; preds = %54
  br label %56

56:                                               ; preds = %55
  br label %57

57:                                               ; preds = %56, %35
  br label %58

58:                                               ; preds = %57, %27
  %59 = load i8, ptr @H5O_init_g, align 1, !tbaa !13, !range !15, !noundef !16
  %60 = trunc i8 %59 to i1
  br i1 %60, label %65, label %61

61:                                               ; preds = %58
  %62 = load i8, ptr @H5_libterm_g, align 1, !tbaa !13, !range !15, !noundef !16
  %63 = trunc i8 %62 to i1
  %64 = xor i1 %63, true
  br label %65

65:                                               ; preds = %61, %58
  %66 = phi i1 [ true, %58 ], [ %64, %61 ]
  %67 = xor i1 %66, true
  %68 = xor i1 %67, true
  %69 = zext i1 %68 to i32
  %70 = sext i32 %69 to i64
  %71 = call i64 @llvm.expect.i64(i64 %70, i64 1)
  %72 = icmp ne i64 %71, 0
  br i1 %72, label %73, label %107

73:                                               ; preds = %65
  %74 = load i32, ptr %9, align 4, !tbaa !8
  %75 = zext i32 %74 to i64
  %76 = getelementptr inbounds nuw [26 x ptr], ptr @H5O_msg_class_g, i64 0, i64 %75
  %77 = load ptr, ptr %76, align 8, !tbaa !23
  store ptr %77, ptr %13, align 8, !tbaa !23
  %78 = load ptr, ptr %7, align 8, !tbaa !22
  %79 = load ptr, ptr %8, align 8, !tbaa !11
  %80 = load ptr, ptr %13, align 8, !tbaa !23
  %81 = load i32, ptr %10, align 4, !tbaa !8
  %82 = load i32, ptr %11, align 4, !tbaa !8
  %83 = load ptr, ptr %12, align 8, !tbaa !10
  %84 = call i32 @H5O__msg_write_real(ptr noundef %78, ptr noundef %79, ptr noundef %80, i32 noundef %81, i32 noundef %82, ptr noundef %83)
  %85 = icmp slt i32 %84, 0
  br i1 %85, label %86, label %105

86:                                               ; preds = %73
  br label %87

87:                                               ; preds = %86
  br label %88

88:                                               ; preds = %87
  br label %89

89:                                               ; preds = %88
  %90 = load i64, ptr @H5E_OHDR_g, align 8, !tbaa !17
  %91 = load i64, ptr @H5E_WRITEERROR_g, align 8, !tbaa !17
  %92 = call i32 (ptr, ptr, i32, i64, i64, ptr, ...) @H5E_printf_stack(ptr noundef @.str, ptr noundef @__func__.H5O_msg_write_oh, i32 noundef 292, i64 noundef %90, i64 noundef %91, ptr noundef @.str.8)
  br label %93

93:                                               ; preds = %89
  br label %94

94:                                               ; preds = %93
  store i8 1, ptr %16, align 1, !tbaa !13
  %95 = load i8, ptr %16, align 1, !tbaa !13, !range !15, !noundef !16
  %96 = trunc i8 %95 to i1
  %97 = zext i1 %96 to i8
  store i8 %97, ptr %16, align 1, !tbaa !13
  br label %98

98:                                               ; preds = %94
  br label %99

99:                                               ; preds = %98
  br label %100

100:                                              ; preds = %99
  store i32 -1, ptr %14, align 4, !tbaa !8
  br label %106

101:                                              ; No predecessors!
  br label %102

102:                                              ; preds = %101
  br label %103

103:                                              ; preds = %102
  br label %104

104:                                              ; preds = %103
  br label %105

105:                                              ; preds = %104, %73
  br label %106

106:                                              ; preds = %105, %100, %52
  br label %107

107:                                              ; preds = %106, %65
  %108 = load i64, ptr %15, align 8, !tbaa !17
  call void @H5AC_tag(i64 noundef %108, ptr noundef null)
  %109 = load i32, ptr %14, align 4, !tbaa !8
  call void @llvm.lifetime.end.p0(i64 1, ptr %16) #5
  call void @llvm.lifetime.end.p0(i64 8, ptr %15) #5
  call void @llvm.lifetime.end.p0(i64 4, ptr %14) #5
  call void @llvm.lifetime.end.p0(i64 8, ptr %13) #5
  ret i32 %109
}