; Function Attrs: nounwind uwtable
define range(i32 -1, 1) i32 @H5O_msg_write_oh(ptr noundef %0, ptr noundef %1, i32 noundef %2, i32 noundef %3, i32 noundef %4, ptr noundef %5) local_unnamed_addr #0 {
  %7 = alloca i64, align 8
  call void @llvm.lifetime.start.p0(i64 8, ptr nonnull %7) #7
  store i64 -1, ptr %7, align 8, !tbaa !10
  %8 = getelementptr inbounds nuw i8, ptr %1, i64 8
  %9 = load i64, ptr %8, align 8, !tbaa !53
  call void @H5AC_tag(i64 noundef %9, ptr noundef nonnull %7) #7
  %10 = load i8, ptr @H5O_init_g, align 1, !tbaa !3, !range !7, !noundef !8
  %11 = trunc nuw i8 %10 to i1
  %12 = load i8, ptr @H5_libterm_g, align 1, !range !7
  %13 = trunc nuw i8 %12 to i1
  %14 = select i1 %11, i1 true, i1 %13
  br i1 %14, label %22, label %15, !prof !9

15:                                               ; preds = %6
  store i8 1, ptr @H5O_init_g, align 1, !tbaa !3
  %16 = call i32 @H5O__init_package() #7
  %17 = icmp slt i32 %16, 0
  br i1 %17, label %18, label %._crit_edge

._crit_edge:                                      ; preds = %15
  %.pre = load i8, ptr @H5O_init_g, align 1, !tbaa !3, !range !7
  %.pre10 = load i8, ptr @H5_libterm_g, align 1, !range !7
  %.pre11 = trunc nuw i8 %.pre to i1
  %.pre12 = trunc nuw i8 %.pre10 to i1
  br label %22

18:                                               ; preds = %15
  store i8 0, ptr @H5O_init_g, align 1, !tbaa !3
  %19 = load i64, ptr @H5E_FUNC_g, align 8, !tbaa !10
  %20 = load i64, ptr @H5E_CANTINIT_g, align 8, !tbaa !10
  %21 = call i32 (ptr, ptr, i32, i64, i64, ptr, ...) @H5E_printf_stack(ptr noundef nonnull @.str, ptr noundef nonnull @__func__.H5O_msg_write_oh, i32 noundef 278, i64 noundef %19, i64 noundef %20, ptr noundef nonnull @.str.1) #7
  br label %35

22:                                               ; preds = %._crit_edge, %6
  %.pre-phi13 = phi i1 [ %.pre12, %._crit_edge ], [ %13, %6 ]
  %.pre-phi = phi i1 [ %.pre11, %._crit_edge ], [ %11, %6 ]
  %23 = xor i1 %.pre-phi13, true
  %24 = select i1 %.pre-phi, i1 true, i1 %23
  br i1 %24, label %25, label %35, !prof !9

25:                                               ; preds = %22
  %26 = zext i32 %2 to i64
  %27 = getelementptr inbounds nuw [26 x ptr], ptr @H5O_msg_class_g, i64 0, i64 %26
  %28 = load ptr, ptr %27, align 8, !tbaa !16
  %29 = call i32 @H5O__msg_write_real(ptr noundef %0, ptr noundef nonnull %1, ptr noundef %28, i32 noundef %3, i32 noundef %4, ptr noundef %5)
  %30 = icmp slt i32 %29, 0
  br i1 %30, label %31, label %35

31:                                               ; preds = %25
  %32 = load i64, ptr @H5E_OHDR_g, align 8, !tbaa !10
  %33 = load i64, ptr @H5E_WRITEERROR_g, align 8, !tbaa !10
  %34 = call i32 (ptr, ptr, i32, i64, i64, ptr, ...) @H5E_printf_stack(ptr noundef nonnull @.str, ptr noundef nonnull @__func__.H5O_msg_write_oh, i32 noundef 292, i64 noundef %32, i64 noundef %33, ptr noundef nonnull @.str.8) #7
  br label %35

35:                                               ; preds = %18, %31, %25, %22
  %.0 = phi i32 [ -1, %18 ], [ -1, %31 ], [ 0, %25 ], [ 0, %22 ]
  %36 = load i64, ptr %7, align 8, !tbaa !10
  call void @H5AC_tag(i64 noundef %36, ptr noundef null) #7
  call void @llvm.lifetime.end.p0(i64 8, ptr nonnull %7) #7
  ret i32 %.0
}